target datalayout = "e-m:e-p270:32:32-p271:32:32-p272:64:64-i64:64-i128:128-f80:128-n8:16:32:64-S128"
target triple = "x86_64-pc-linux-gnu"

%struct.mp_buf = type { ptr, i64, i64 }

; Function Attrs: nounwind uwtable
define dso_local ptr @mp_realloc(ptr noundef %0, ptr noundef %1, i64 noundef %2, i64 noundef %3) #0 {
  %5 = alloca ptr, align 8
  %6 = alloca ptr, align 8
  %7 = alloca i64, align 8
  %8 = alloca i64, align 8
  %9 = alloca ptr, align 8
  %10 = alloca ptr, align 8
  store ptr %0, ptr %5, align 8, !tbaa !17
  store ptr %1, ptr %6, align 8, !tbaa !4
  store i64 %2, ptr %7, align 8, !tbaa !8
  store i64 %3, ptr %8, align 8, !tbaa !8
  call void @llvm.lifetime.start.p0(i64 8, ptr %9) #6
  store ptr null, ptr %9, align 8, !tbaa !4
  call void @llvm.lifetime.start.p0(i64 8, ptr %10) #6
  %11 = load ptr, ptr %5, align 8, !tbaa !17
  %12 = call ptr @lua_getallocf(ptr noundef %11, ptr noundef %10)
  store ptr %12, ptr %9, align 8, !tbaa !4
  %13 = load ptr, ptr %9, align 8, !tbaa !4
  %14 = load ptr, ptr %10, align 8, !tbaa !4
  %15 = load ptr, ptr %6, align 8, !tbaa !4
  %16 = load i64, ptr %7, align 8, !tbaa !8
  %17 = load i64, ptr %8, align 8, !tbaa !8
  %18 = call ptr %13(ptr noundef %14, ptr noundef %15, i64 noundef %16, i64 noundef %17)
  call void @llvm.lifetime.end.p0(i64 8, ptr %10) #6
  call void @llvm.lifetime.end.p0(i64 8, ptr %9) #6
  ret ptr %18
}

; Function Attrs: nounwind uwtable
define dso_local void @mp_buf_append(ptr noundef %0, ptr noundef %1, ptr noundef %2, i64 noundef %3) #0 {
  %5 = alloca ptr, align 8
  %6 = alloca ptr, align 8
  %7 = alloca ptr, align 8
  %8 = alloca i64, align 8
  %9 = alloca i64, align 8
  store ptr %0, ptr %5, align 8, !tbaa !17
  store ptr %1, ptr %6, align 8, !tbaa !19
  store ptr %2, ptr %7, align 8, !tbaa !10
  store i64 %3, ptr %8, align 8, !tbaa !8
  %10 = load ptr, ptr %6, align 8, !tbaa !19
  %11 = getelementptr inbounds nuw %struct.mp_buf, ptr %10, i32 0, i32 2
  %12 = load i64, ptr %11, align 8, !tbaa !23
  %13 = load i64, ptr %8, align 8, !tbaa !8
  %14 = icmp ult i64 %12, %13
  br i1 %14, label %15, label %55

15:                                               ; preds = %4
  call void @llvm.lifetime.start.p0(i64 8, ptr %9) #6
  %16 = load ptr, ptr %6, align 8, !tbaa !19
  %17 = getelementptr inbounds nuw %struct.mp_buf, ptr %16, i32 0, i32 1
  %18 = load i64, ptr %17, align 8, !tbaa !24
  %19 = load i64, ptr %8, align 8, !tbaa !8
  %20 = add i64 %18, %19
  store i64 %20, ptr %9, align 8, !tbaa !8
  %21 = load i64, ptr %9, align 8, !tbaa !8
  %22 = load ptr, ptr %6, align 8, !tbaa !19
  %23 = getelementptr inbounds nuw %struct.mp_buf, ptr %22, i32 0, i32 1
  %24 = load i64, ptr %23, align 8, !tbaa !24
  %25 = icmp ult i64 %21, %24
  br i1 %25, label %29, label %26

26:                                               ; preds = %15
  %27 = load i64, ptr %9, align 8, !tbaa !8
  %28 = icmp uge i64 %27, 9223372036854775807
  br i1 %28, label %29, label %30

29:                                               ; preds = %26, %15
  call void @abort() #7
  unreachable

30:                                               ; preds = %26
  %31 = load i64, ptr %9, align 8, !tbaa !8
  %32 = mul i64 %31, 2
  store i64 %32, ptr %9, align 8, !tbaa !8
  %33 = load ptr, ptr %5, align 8, !tbaa !17
  %34 = load ptr, ptr %6, align 8, !tbaa !19
  %35 = getelementptr inbounds nuw %struct.mp_buf, ptr %34, i32 0, i32 0
  %36 = load ptr, ptr %35, align 8, !tbaa !21
  %37 = load ptr, ptr %6, align 8, !tbaa !19
  %38 = getelementptr inbounds nuw %struct.mp_buf, ptr %37, i32 0, i32 1
  %39 = load i64, ptr %38, align 8, !tbaa !24
  %40 = load ptr, ptr %6, align 8, !tbaa !19
  %41 = getelementptr inbounds nuw %struct.mp_buf, ptr %40, i32 0, i32 2
  %42 = load i64, ptr %41, align 8, !tbaa !23
  %43 = add i64 %39, %42
  %44 = load i64, ptr %9, align 8, !tbaa !8
  %45 = call ptr @mp_realloc(ptr noundef %33, ptr noundef %36, i64 noundef %43, i64 noundef %44)
  %46 = load ptr, ptr %6, align 8, !tbaa !19
  %47 = getelementptr inbounds nuw %struct.mp_buf, ptr %46, i32 0, i32 0
  store ptr %45, ptr %47, align 8, !tbaa !21
  %48 = load i64, ptr %9, align 8, !tbaa !8
  %49 = load ptr, ptr %6, align 8, !tbaa !19
  %50 = getelementptr inbounds nuw %struct.mp_buf, ptr %49, i32 0, i32 1
  %51 = load i64, ptr %50, align 8, !tbaa !24
  %52 = sub i64 %48, %51
  %53 = load ptr, ptr %6, align 8, !tbaa !19
  %54 = getelementptr inbounds nuw %struct.mp_buf, ptr %53, i32 0, i32 2
  store i64 %52, ptr %54, align 8, !tbaa !23
  call void @llvm.lifetime.end.p0(i64 8, ptr %9) #6
  br label %55

55:                                               ; preds = %30, %4
  %56 = load ptr, ptr %6, align 8, !tbaa !19
  %57 = getelementptr inbounds nuw %struct.mp_buf, ptr %56, i32 0, i32 0
  %58 = load ptr, ptr %57, align 8, !tbaa !21
  %59 = load ptr, ptr %6, align 8, !tbaa !19
  %60 = getelementptr inbounds nuw %struct.mp_buf, ptr %59, i32 0, i32 1
  %61 = load i64, ptr %60, align 8, !tbaa !24
  %62 = getelementptr inbounds nuw i8, ptr %58, i64 %61
  %63 = load ptr, ptr %7, align 8, !tbaa !10
  %64 = load i64, ptr %8, align 8, !tbaa !8
  call void @llvm.memcpy.p0.p0.i64(ptr align 1 %62, ptr align 1 %63, i64 %64, i1 false)
  %65 = load i64, ptr %8, align 8, !tbaa !8
  %66 = load ptr, ptr %6, align 8, !tbaa !19
  %67 = getelementptr inbounds nuw %struct.mp_buf, ptr %66, i32 0, i32 1
  %68 = load i64, ptr %67, align 8, !tbaa !24
  %69 = add i64 %68, %65
  store i64 %69, ptr %67, align 8, !tbaa !24
  %70 = load i64, ptr %8, align 8, !tbaa !8
  %71 = load ptr, ptr %6, align 8, !tbaa !19
  %72 = getelementptr inbounds nuw %struct.mp_buf, ptr %71, i32 0, i32 2
  %73 = load i64, ptr %72, align 8, !tbaa !23
  %74 = sub i64 %73, %70
  store i64 %74, ptr %72, align 8, !tbaa !23
  ret void
}

; Function Attrs: nounwind uwtable
define dso_local void @mp_encode_array(ptr noundef %0, ptr noundef %1, i64 noundef %2) #0 {
  %4 = alloca ptr, align 8
  %5 = alloca ptr, align 8
  %6 = alloca i64, align 8
  %7 = alloca [5 x i8], align 1
  %8 = alloca i64, align 8
  store ptr %0, ptr %4, align 8, !tbaa !17
  store ptr %1, ptr %5, align 8, !tbaa !19
  store i64 %2, ptr %6, align 8, !tbaa !8
  call void @llvm.lifetime.start.p0(i64 5, ptr %7) #6
  call void @llvm.lifetime.start.p0(i64 8, ptr %8) #6
  %9 = load i64, ptr %6, align 8, !tbaa !8
  %10 = icmp ule i64 %9, 15
  br i1 %10, label %11, label %17

11:                                               ; preds = %3
  %12 = load i64, ptr %6, align 8, !tbaa !8
  %13 = and i64 %12, 15
  %14 = or i64 144, %13
  %15 = trunc i64 %14 to i8
  %16 = getelementptr inbounds [5 x i8], ptr %7, i64 0, i64 0
  store i8 %15, ptr %16, align 1, !tbaa !14
  store i64 1, ptr %8, align 8, !tbaa !8
  br label %53

17:                                               ; preds = %3
  %18 = load i64, ptr %6, align 8, !tbaa !8
  %19 = icmp ule i64 %18, 65535
  br i1 %19, label %20, label %31

20:                                               ; preds = %17
  %21 = getelementptr inbounds [5 x i8], ptr %7, i64 0, i64 0
  store i8 -36, ptr %21, align 1, !tbaa !14
  %22 = load i64, ptr %6, align 8, !tbaa !8
  %23 = and i64 %22, 65280
  %24 = lshr i64 %23, 8
  %25 = trunc i64 %24 to i8
  %26 = getelementptr inbounds [5 x i8], ptr %7, i64 0, i64 1
  store i8 %25, ptr %26, align 1, !tbaa !14
  %27 = load i64, ptr %6, align 8, !tbaa !8
  %28 = and i64 %27, 255
  %29 = trunc i64 %28 to i8
  %30 = getelementptr inbounds [5 x i8], ptr %7, i64 0, i64 2
  store i8 %29, ptr %30, align 1, !tbaa !14
  store i64 3, ptr %8, align 8, !tbaa !8
  br label %52

31:                                               ; preds = %17
  %32 = getelementptr inbounds [5 x i8], ptr %7, i64 0, i64 0
  store i8 -35, ptr %32, align 1, !tbaa !14
  %33 = load i64, ptr %6, align 8, !tbaa !8
  %34 = and i64 %33, 4278190080
  %35 = lshr i64 %34, 24
  %36 = trunc i64 %35 to i8
  %37 = getelementptr inbounds [5 x i8], ptr %7, i64 0, i64 1
  store i8 %36, ptr %37, align 1, !tbaa !14
  %38 = load i64, ptr %6, align 8, !tbaa !8
  %39 = and i64 %38, 16711680
  %40 = lshr i64 %39, 16
  %41 = trunc i64 %40 to i8
  %42 = getelementptr inbounds [5 x i8], ptr %7, i64 0, i64 2
  store i8 %41, ptr %42, align 1, !tbaa !14
  %43 = load i64, ptr %6, align 8, !tbaa !8
  %44 = and i64 %43, 65280
  %45 = lshr i64 %44, 8
  %46 = trunc i64 %45 to i8
  %47 = getelementptr inbounds [5 x i8], ptr %7, i64 0, i64 3
  store i8 %46, ptr %47, align 1, !tbaa !14
  %48 = load i64, ptr %6, align 8, !tbaa !8
  %49 = and i64 %48, 255
  %50 = trunc i64 %49 to i8
  %51 = getelementptr inbounds [5 x i8], ptr %7, i64 0, i64 4
  store i8 %50, ptr %51, align 1, !tbaa !14
  store i64 5, ptr %8, align 8, !tbaa !8
  br label %52

52:                                               ; preds = %31, %20
  br label %53

53:                                               ; preds = %52, %11
  %54 = load ptr, ptr %4, align 8, !tbaa !17
  %55 = load ptr, ptr %5, align 8, !tbaa !19
  %56 = getelementptr inbounds [5 x i8], ptr %7, i64 0, i64 0
  %57 = load i64, ptr %8, align 8, !tbaa !8
  call void @mp_buf_append(ptr noundef %54, ptr noundef %55, ptr noundef %56, i64 noundef %57)
  call void @llvm.lifetime.end.p0(i64 8, ptr %8) #6
  call void @llvm.lifetime.end.p0(i64 5, ptr %7) #6
  ret void
}