; Function Attrs: nounwind uwtable
define dso_local void @mp_encode_array(ptr noundef %0, ptr noundef captures(none) %1, i64 noundef %2) local_unnamed_addr #2 {
  %4 = alloca ptr, align 8
  %5 = alloca [5 x i8], align 1
  call void @llvm.lifetime.start.p0(i64 5, ptr nonnull %5)
  %6 = icmp ult i64 %2, 16
  br i1 %6, label %7, label %10

7:                                                ; preds = %3
  %8 = trunc nuw i64 %2 to i8
  %9 = or disjoint i8 %8, -112
  store i8 %9, ptr %5, align 1, !tbaa !4
  br label %24

10:                                               ; preds = %3
  %11 = icmp ult i64 %2, 65536
  br i1 %11, label %12, label %16

12:                                               ; preds = %10
  store i8 -36, ptr %5, align 1, !tbaa !4
  %13 = lshr i64 %2, 8
  %14 = trunc nuw i64 %13 to i8
  %.1..1..1..sroa_idx = getelementptr inbounds nuw i8, ptr %5, i64 1
  store i8 %14, ptr %.1..1..1..sroa_idx, align 1, !tbaa !4
  %15 = trunc i64 %2 to i8
  %.2..2..2..sroa_idx17 = getelementptr inbounds nuw i8, ptr %5, i64 2
  store i8 %15, ptr %.2..2..2..sroa_idx17, align 1, !tbaa !4
  br label %24

16:                                               ; preds = %10
  store i8 -35, ptr %5, align 1, !tbaa !4
  %17 = lshr i64 %2, 24
  %18 = trunc i64 %17 to i8
  %.1..1..1..sroa_idx16 = getelementptr inbounds nuw i8, ptr %5, i64 1
  store i8 %18, ptr %.1..1..1..sroa_idx16, align 1, !tbaa !4
  %19 = lshr i64 %2, 16
  %20 = trunc i64 %19 to i8
  %.2..2..2..sroa_idx = getelementptr inbounds nuw i8, ptr %5, i64 2
  store i8 %20, ptr %.2..2..2..sroa_idx, align 1, !tbaa !4
  %21 = lshr i64 %2, 8
  %22 = trunc i64 %21 to i8
  %.3..3..3..sroa_idx = getelementptr inbounds nuw i8, ptr %5, i64 3
  store i8 %22, ptr %.3..3..3..sroa_idx, align 1, !tbaa !4
  %23 = trunc i64 %2 to i8
  %.4..4..4..sroa_idx = getelementptr inbounds nuw i8, ptr %5, i64 4
  store i8 %23, ptr %.4..4..4..sroa_idx, align 1, !tbaa !4
  br label %24

24:                                               ; preds = %12, %16, %7
  %.0 = phi i64 [ 1, %7 ], [ 3, %12 ], [ 5, %16 ]
  %25 = getelementptr inbounds nuw i8, ptr %1, i64 16
  %26 = load i64, ptr %25, align 8, !tbaa !11
  %27 = icmp ult i64 %26, %.0
  br i1 %27, label %28, label %._crit_edge.i

._crit_edge.i:                                    ; preds = %24
  %.pre.i = load ptr, ptr %1, align 8, !tbaa !15
  %.phi.trans.insert.i = getelementptr inbounds nuw i8, ptr %1, i64 8
  %.pre28.i = load i64, ptr %.phi.trans.insert.i, align 8, !tbaa !16
  br label %mp_buf_append.exit

28:                                               ; preds = %24
  %29 = getelementptr inbounds nuw i8, ptr %1, i64 8
  %30 = load i64, ptr %29, align 8, !tbaa !16
  %31 = add i64 %30, %.0
  %32 = icmp ult i64 %31, %30
  %33 = icmp ugt i64 %31, 9223372036854775806
  %or.cond.i = or i1 %32, %33
  br i1 %or.cond.i, label %34, label %35

34:                                               ; preds = %28
  tail call void @abort() #11
  unreachable

35:                                               ; preds = %28
  %36 = shl nuw i64 %31, 1
  %37 = load ptr, ptr %1, align 8, !tbaa !15
  %38 = add i64 %30, %26
  call void @llvm.lifetime.start.p0(i64 8, ptr nonnull %4) #10
  %39 = call ptr @lua_getallocf(ptr noundef %0, ptr noundef nonnull %4) #10
  %40 = load ptr, ptr %4, align 8, !tbaa !9
  %41 = call ptr %39(ptr noundef %40, ptr noundef %37, i64 noundef %38, i64 noundef %36) #10
  call void @llvm.lifetime.end.p0(i64 8, ptr nonnull %4) #10
  store ptr %41, ptr %1, align 8, !tbaa !15
  %42 = load i64, ptr %29, align 8, !tbaa !16
  %43 = sub i64 %36, %42
  store i64 %43, ptr %25, align 8, !tbaa !11
  br label %mp_buf_append.exit

mp_buf_append.exit:                               ; preds = %._crit_edge.i, %35
  %44 = phi i64 [ %.pre28.i, %._crit_edge.i ], [ %42, %35 ]
  %45 = phi ptr [ %.pre.i, %._crit_edge.i ], [ %41, %35 ]
  %46 = getelementptr inbounds nuw i8, ptr %1, i64 8
  %47 = getelementptr inbounds nuw i8, ptr %45, i64 %44
  call void @llvm.memcpy.p0.p0.i64(ptr noundef nonnull align 1 dereferenceable(1) %47, ptr noundef nonnull readonly align 1 dereferenceable(1) %5, i64 %.0, i1 false)
  %48 = load i64, ptr %46, align 8, !tbaa !16
  %49 = add i64 %48, %.0
  store i64 %49, ptr %46, align 8, !tbaa !16
  %50 = load i64, ptr %25, align 8, !tbaa !11
  %51 = sub i64 %50, %.0
  store i64 %51, ptr %25, align 8, !tbaa !11
  call void @llvm.lifetime.end.p0(i64 5, ptr nonnull %5)
  ret void
}